target datalayout = "e-m:e-p270:32:32-p271:32:32-p272:64:64-i64:64-i128:128-f80:128-n8:16:32:64-S128"
target triple = "x86_64-pc-linux-gnu"

@.str.534 = private unnamed_addr constant [20 x i8] c"DG Gryphon Protocol\00", align 1
@.str.535 = private unnamed_addr constant [8 x i8] c"Gryphon\00", align 1
@.str.536 = private unnamed_addr constant [8 x i8] c"gryphon\00", align 1
@proto_gryphon = internal global i32 0, align 4
@gryphon_handle = internal global ptr null, align 8
@.str.537 = private unnamed_addr constant [10 x i8] c"desegment\00", align 1
@.str.538 = private unnamed_addr constant [62 x i8] c"Desegment all Gryphon messages spanning multiple TCP segments\00", align 1
@.str.539 = private unnamed_addr constant [91 x i8] c"Whether the Gryphon dissector should desegment all messages spanning multiple TCP segments\00", align 1
@gryphon_desegment = internal global i8 1, align 1

; Function Attrs: null_pointer_is_valid sspstrong uwtable
define hidden void @proto_register_gryphon() #0 {
  %1 = alloca ptr, align 8
  %2 = alloca ptr, align 8
  call void @llvm.lifetime.start.p0(i64 8, ptr %1) #7
  call void @llvm.lifetime.start.p0(i64 8, ptr %2) #7
  %3 = call i32 @proto_register_protocol(ptr noundef @.str.534, ptr noundef @.str.535, ptr noundef @.str.536)
  store i32 %3, ptr @proto_gryphon, align 4
  %4 = load i32, ptr @proto_gryphon, align 4
  call void @proto_register_field_array(i32 noundef %4, ptr noundef @proto_register_gryphon.hf, i32 noundef 293)
  call void @proto_register_subtree_array(ptr noundef @proto_register_gryphon.ett, i32 noundef 31)
  %5 = load i32, ptr @proto_gryphon, align 4
  %6 = call ptr @expert_register_protocol(i32 noundef %5)
  store ptr %6, ptr %2, align 8
  %7 = load ptr, ptr %2, align 8
  call void @expert_register_field_array(ptr noundef %7, ptr noundef @proto_register_gryphon.ei, i32 noundef 1)
  %8 = load i32, ptr @proto_gryphon, align 4
  %9 = call ptr @register_dissector(ptr noundef @.str.536, ptr noundef @dissect_gryphon, i32 noundef %8)
  store ptr %9, ptr @gryphon_handle, align 8
  %10 = load i32, ptr @proto_gryphon, align 4
  %11 = call ptr @prefs_register_protocol(i32 noundef %10, ptr noundef null)
  store ptr %11, ptr %1, align 8
  %12 = load ptr, ptr %1, align 8
  call void @prefs_register_bool_preference(ptr noundef %12, ptr noundef @.str.537, ptr noundef @.str.538, ptr noundef @.str.539, ptr noundef @gryphon_desegment)
  call void @llvm.lifetime.end.p0(i64 8, ptr %2) #7
  call void @llvm.lifetime.end.p0(i64 8, ptr %1) #7
  ret void
}