; Function Attrs: null_pointer_is_valid sspstrong uwtable
define hidden void @proto_register_gryphon() local_unnamed_addr #0 {
  %1 = tail call i32 @proto_register_protocol(ptr noundef nonnull @.str.534, ptr noundef nonnull @.str.535, ptr noundef nonnull @.str.536)
  store i32 %1, ptr @proto_gryphon, align 4
  tail call void @proto_register_field_array(i32 noundef %1, ptr noundef nonnull @proto_register_gryphon.hf, i32 noundef 293)
  tail call void @proto_register_subtree_array(ptr noundef nonnull @proto_register_gryphon.ett, i32 noundef 31)
  %2 = load i32, ptr @proto_gryphon, align 4
  %3 = tail call ptr @expert_register_protocol(i32 noundef %2)
  tail call void @expert_register_field_array(ptr noundef %3, ptr noundef nonnull @proto_register_gryphon.ei, i32 noundef 1)
  %4 = load i32, ptr @proto_gryphon, align 4
  %5 = tail call ptr @register_dissector(ptr noundef nonnull @.str.536, ptr noundef nonnull @dissect_gryphon, i32 noundef %4)
  store ptr %5, ptr @gryphon_handle, align 8
  %6 = load i32, ptr @proto_gryphon, align 4
  %7 = tail call ptr @prefs_register_protocol(i32 noundef %6, ptr noundef null)
  tail call void @prefs_register_bool_preference(ptr noundef %7, ptr noundef nonnull @.str.537, ptr noundef nonnull @.str.538, ptr noundef nonnull @.str.539, ptr noundef nonnull @gryphon_desegment)
  ret void
}